target datalayout = "e-m:e-p270:32:32-p271:32:32-p272:64:64-i64:64-i128:128-f80:128-n8:16:32:64-S128"
target triple = "x86_64-unknown-linux-gnu"

; Function Attrs: mustprogress uwtable
define noundef zeroext i1 @_ZN7rocksdb13InternalStats28HandleIsFileDeletionsEnabledEPmPNS_6DBImplEPNS_7VersionE(ptr noundef nonnull align 8 dereferenceable(1944) %this, ptr noundef %value, ptr noundef %db, ptr noundef %0) #0 align 2 {
entry:
  %this.addr = alloca ptr, align 8
  %value.addr = alloca ptr, align 8
  %db.addr = alloca ptr, align 8
  %.addr = alloca ptr, align 8
  store ptr %this, ptr %this.addr, align 8
  store ptr %value, ptr %value.addr, align 8
  store ptr %db, ptr %db.addr, align 8
  store ptr %0, ptr %.addr, align 8
  %1 = load ptr, ptr %db.addr, align 8
  %vtable = load ptr, ptr %1, align 64
  %vfn = getelementptr inbounds ptr, ptr %vtable, i64 151
  %2 = load ptr, ptr %vfn, align 8
  %call = call noundef zeroext i1 %2(ptr noundef nonnull align 64 dereferenceable(6660) %1)
  %cond = select i1 %call, i32 1, i32 0
  %conv = sext i32 %cond to i64
  %3 = load ptr, ptr %value.addr, align 8
  store i64 %conv, ptr %3, align 8
  ret i1 true
}