; Function Attrs: mustprogress uwtable
define noundef zeroext i1 @_ZN7rocksdb13InternalStats28HandleIsFileDeletionsEnabledEPmPNS_6DBImplEPNS_7VersionE(ptr nocapture nonnull readnone align 8 %this, ptr nocapture noundef writeonly %value, ptr noundef %db, ptr nocapture readnone %0) #4 align 2 {
entry:
  %vtable = load ptr, ptr %db, align 64
  %vfn = getelementptr inbounds i8, ptr %vtable, i64 1208
  %1 = load ptr, ptr %vfn, align 8
  %call = tail call noundef zeroext i1 %1(ptr noundef nonnull align 64 dereferenceable(6660) %db)
  %conv = zext i1 %call to i64
  store i64 %conv, ptr %value, align 8
  ret i1 true
}